; Function Attrs: mustprogress noreturn uwtable
define void @_ZN2cv8stopLoopEv() local_unnamed_addr #9 personality ptr @__gxx_personality_v0 {
  %1 = alloca %"class.std::__cxx11::basic_string", align 8
  %2 = alloca %"class.std::allocator", align 1
  call void @_ZNSaIcEC1Ev(ptr noundef nonnull align 1 dereferenceable(1) %2) #20
  invoke void @_ZNSt7__cxx1112basic_stringIcSt11char_traitsIcESaIcEEC1EPKcRKS3_(ptr noundef nonnull align 8 dereferenceable(32) %1, ptr noundef nonnull @.str.46, ptr noundef nonnull align 1 dereferenceable(1) %2)
          to label %3 unwind label %5

3:                                                ; preds = %0
  invoke void @_ZN2cv5errorEiRKNSt7__cxx1112basic_stringIcSt11char_traitsIcESaIcEEEPKcS9_i(i32 noundef -213, ptr noundef nonnull align 8 dereferenceable(32) %1, ptr noundef nonnull @__func__._ZN2cv8stopLoopEv, ptr noundef nonnull @.str.1, i32 noundef 1238) #22
          to label %4 unwind label %7

4:                                                ; preds = %3
  unreachable

5:                                                ; preds = %0
  %6 = landingpad { ptr, i32 }
          cleanup
  br label %9

7:                                                ; preds = %3
  %8 = landingpad { ptr, i32 }
          cleanup
  call void @_ZNSt7__cxx1112basic_stringIcSt11char_traitsIcESaIcEED1Ev(ptr noundef nonnull align 8 dereferenceable(32) %1) #20
  br label %9

9:                                                ; preds = %7, %5
  %.pn = phi { ptr, i32 } [ %8, %7 ], [ %6, %5 ]
  call void @_ZNSaIcED1Ev(ptr noundef nonnull align 1 dereferenceable(1) %2) #20
  resume { ptr, i32 } %.pn
}